; ModuleID = '20/408.c'
source_filename = "20/408.c"
target datalayout = "e-m:e-p270:32:32-p271:32:32-p272:64:64-i64:64-f80:128-n8:16:32:64-S128"
target triple = "x86_64-pc-linux-gnu"

@.str = private unnamed_addr constant [6 x i8] c"%s %s\00", align 1
@.str.1 = private unnamed_addr constant [4 x i8] c"%s\0A\00", align 1

; Function Attrs: noinline nounwind uwtable
define dso_local i32 @main() #0 {
  %1 = alloca i32, align 4
  %2 = alloca i32, align 4
  %3 = alloca i32, align 4
  %4 = alloca i32, align 4
  %5 = alloca i32, align 4
  %6 = alloca [10000 x [20 x i8]], align 16
  %7 = alloca [10000 x [14 x i8]], align 16
  %8 = alloca i8*, align 8
  %9 = alloca i8*, align 8
  store i32 0, i32* %1, align 4
  store i32 0, i32* %2, align 4
  store i32 0, i32* %3, align 4
  br label %10

10:                                               ; preds = %84, %0
  %11 = load i32, i32* %2, align 4
  %12 = sext i32 %11 to i64
  %13 = getelementptr inbounds [10000 x [20 x i8]], [10000 x [20 x i8]]* %6, i64 0, i64 %12
  %14 = load i32, i32* %2, align 4
  %15 = sext i32 %14 to i64
  %16 = getelementptr inbounds [10000 x [14 x i8]], [10000 x [14 x i8]]* %7, i64 0, i64 %15
  %17 = call i32 (i8*, ...) @__isoc99_scanf(i8* getelementptr inbounds ([6 x i8], [6 x i8]* @.str, i64 0, i64 0), [20 x i8]* %13, [14 x i8]* %16)
  %18 = icmp ne i32 %17, -1
  br i1 %18, label %19, label %95

19:                                               ; preds = %10
  %20 = load i32, i32* %2, align 4
  %21 = sext i32 %20 to i64
  %22 = getelementptr inbounds [10000 x [20 x i8]], [10000 x [20 x i8]]* %6, i64 0, i64 %21
  %23 = getelementptr inbounds [20 x i8], [20 x i8]* %22, i64 0, i64 0
  %24 = call i64 @strlen(i8* %23) #4
  %25 = trunc i64 %24 to i32
  store i32 %25, i32* %4, align 4
  %26 = load i32, i32* %2, align 4
  %27 = sext i32 %26 to i64
  %28 = getelementptr inbounds [10000 x [14 x i8]], [10000 x [14 x i8]]* %7, i64 0, i64 %27
  %29 = getelementptr inbounds [14 x i8], [14 x i8]* %28, i64 0, i64 2
  store i8* %29, i8** %8, align 8
  %30 = getelementptr inbounds [10000 x [20 x i8]], [10000 x [20 x i8]]* %6, i64 0, i64 0
  %31 = bitcast [20 x i8]* %30 to i8*
  store i8* %31, i8** %9, align 8
  store i32 0, i32* %3, align 4
  br label %32

32:                                               ; preds = %60, %19
  %33 = load i32, i32* %3, align 4
  %34 = load i32, i32* %4, align 4
  %35 = sub nsw i32 %34, 1
  %36 = icmp slt i32 %33, %35
  br i1 %36, label %37, label %63

37:                                               ; preds = %32
  %38 = load i8*, i8** %9, align 8
  %39 = load i8, i8* %38, align 1
  %40 = sext i8 %39 to i32
  %41 = load i32, i32* %2, align 4
  %42 = sext i32 %41 to i64
  %43 = getelementptr inbounds [10000 x [20 x i8]], [10000 x [20 x i8]]* %6, i64 0, i64 %42
  %44 = load i32, i32* %3, align 4
  %45 = add nsw i32 %44, 1
  %46 = sext i32 %45 to i64
  %47 = getelementptr inbounds [20 x i8], [20 x i8]* %43, i64 0, i64 %46
  %48 = load i8, i8* %47, align 1
  %49 = sext i8 %48 to i32
  %50 = icmp slt i32 %40, %49
  br i1 %50, label %51, label %59

51:                                               ; preds = %37
  %52 = load i32, i32* %2, align 4
  %53 = sext i32 %52 to i64
  %54 = getelementptr inbounds [10000 x [20 x i8]], [10000 x [20 x i8]]* %6, i64 0, i64 %53
  %55 = load i32, i32* %3, align 4
  %56 = add nsw i32 %55, 1
  %57 = sext i32 %56 to i64
  %58 = getelementptr inbounds [20 x i8], [20 x i8]* %54, i64 0, i64 %57
  store i8* %58, i8** %9, align 8
  br label %59

59:                                               ; preds = %51, %37
  br label %60

60:                                               ; preds = %59
  %61 = load i32, i32* %3, align 4
  %62 = add nsw i32 %61, 1
  store i32 %62, i32* %3, align 4
  br label %32

63:                                               ; preds = %32
  store i32 1, i32* %3, align 4
  br label %64

64:                                               ; preds = %81, %63
  %65 = load i32, i32* %3, align 4
  %66 = icmp slt i32 %65, 10
  br i1 %66, label %67, label %84

67:                                               ; preds = %64
  %68 = load i8*, i8** %9, align 8
  %69 = load i32, i32* %3, align 4
  %70 = sext i32 %69 to i64
  %71 = getelementptr inbounds i8, i8* %68, i64 %70
  %72 = load i8, i8* %71, align 1
  %73 = load i8*, i8** %8, align 8
  %74 = load i32, i32* %3, align 4
  %75 = sext i32 %74 to i64
  %76 = getelementptr inbounds i8, i8* %73, i64 %75
  store i8 %72, i8* %76, align 1
  %77 = load i8*, i8** %9, align 8
  %78 = load i32, i32* %3, align 4
  %79 = sext i32 %78 to i64
  %80 = getelementptr inbounds i8, i8* %77, i64 %79
  store i8 0, i8* %80, align 1
  br label %81

81:                                               ; preds = %67
  %82 = load i32, i32* %3, align 4
  %83 = add nsw i32 %82, 1
  store i32 %83, i32* %3, align 4
  br label %64

84:                                               ; preds = %64
  %85 = load i32, i32* %2, align 4
  %86 = sext i32 %85 to i64
  %87 = getelementptr inbounds [10000 x [20 x i8]], [10000 x [20 x i8]]* %6, i64 0, i64 %86
  %88 = getelementptr inbounds [20 x i8], [20 x i8]* %87, i64 0, i64 0
  %89 = load i32, i32* %2, align 4
  %90 = sext i32 %89 to i64
  %91 = getelementptr inbounds [10000 x [14 x i8]], [10000 x [14 x i8]]* %7, i64 0, i64 %90
  %92 = getelementptr inbounds [14 x i8], [14 x i8]* %91, i64 0, i64 0
  %93 = call i8* @strcat(i8* %88, i8* %92) #5
  %94 = call i32 (i8*, ...) @printf(i8* getelementptr inbounds ([4 x i8], [4 x i8]* @.str.1, i64 0, i64 0), i8* %93)
  br label %10

95:                                               ; preds = %10
  %96 = load i32, i32* %1, align 4
  ret i32 %96
}

declare dso_local i32 @__isoc99_scanf(i8*, ...) #1

; Function Attrs: nounwind readonly
declare dso_local i64 @strlen(i8*) #2

declare dso_local i32 @printf(i8*, ...) #1

; Function Attrs: nounwind
declare dso_local i8* @strcat(i8*, i8*) #3


!llvm.module.flags = !{!0}
!llvm.ident = !{!1}

!0 = !{i32 1, !"wchar_size", i32 4}
!1 = !{!"clang version 10.0.0-4ubuntu1 "}
